target datalayout = "e-m:e-p270:32:32-p271:32:32-p272:64:64-i64:64-i128:128-f80:128-n8:16:32:64-S128"
target triple = "x86_64-pc-linux-gnu"

%struct.expert_field = type { i32, i32 }
%struct.ieee80211_tagged_field_data = type { i32, ptr, i8, ptr, ptr }

@ei_ieee80211_tag_length = internal global %struct.expert_field zeroinitializer, align 4
@hf_ieee80211_tsinfo = internal global i32 0, align 4
@hf_ieee80211_tspec_nor_msdu = internal global i32 0, align 4
@hf_ieee80211_tspec_max_msdu = internal global i32 0, align 4
@hf_ieee80211_tspec_min_srv = internal global i32 0, align 4
@hf_ieee80211_tspec_max_srv = internal global i32 0, align 4
@hf_ieee80211_tspec_inact_int = internal global i32 0, align 4
@hf_ieee80211_tspec_susp_int = internal global i32 0, align 4
@hf_ieee80211_tspec_srv_start = internal global i32 0, align 4
@hf_ieee80211_tspec_min_data = internal global i32 0, align 4
@hf_ieee80211_tspec_mean_data = internal global i32 0, align 4
@hf_ieee80211_tspec_peak_data = internal global i32 0, align 4
@hf_ieee80211_tspec_burst_size = internal global i32 0, align 4
@hf_ieee80211_tspec_delay_bound = internal global i32 0, align 4
@hf_ieee80211_tspec_min_phy = internal global i32 0, align 4
@hf_ieee80211_tspec_surplus = internal global i32 0, align 4
@hf_ieee80211_tspec_medium = internal global i32 0, align 4
@hf_ieee80211_tspec_dmg = internal global i32 0, align 4
@ett_tsinfo_tree = internal global i32 0, align 4
@.str.9967 = private unnamed_addr constant [34 x i8] c"Tag Length %u wrong, must be = 55\00", align 1
@.str.9968 = private unnamed_addr constant [34 x i8] c"Tag Length %u wrong, must be = 57\00", align 1

; Function Attrs: null_pointer_is_valid sspstrong uwtable
define internal i32 @add_ff_qos_ts_info(ptr noundef %0, ptr noundef %1, ptr noundef %2, i32 noundef %3) #1 {
  %5 = alloca ptr, align 8
  %6 = alloca ptr, align 8
  %7 = alloca ptr, align 8
  %8 = alloca i32, align 4
  store ptr %0, ptr %5, align 8
  store ptr %1, ptr %6, align 8
  store ptr %2, ptr %7, align 8
  store i32 %3, ptr %8, align 4
  %9 = load ptr, ptr %5, align 8
  %10 = load ptr, ptr %6, align 8
  %11 = load i32, ptr %8, align 4
  %12 = load i32, ptr @hf_ieee80211_tsinfo, align 4
  %13 = load i32, ptr @ett_tsinfo_tree, align 4
  %14 = call ptr @proto_tree_add_bitmask(ptr noundef %9, ptr noundef %10, i32 noundef %11, i32 noundef %12, i32 noundef %13, ptr noundef @ieee80211_tsinfo_fields, i32 noundef -2147483648)
  ret i32 3
}

; Function Attrs: null_pointer_is_valid sspstrong uwtable
define internal i32 @ieee80211_tag_tspec(ptr noundef %0, ptr noundef %1, ptr noundef %2, ptr noundef %3) #1 {
  %5 = alloca i32, align 4
  %6 = alloca ptr, align 8
  %7 = alloca ptr, align 8
  %8 = alloca ptr, align 8
  %9 = alloca ptr, align 8
  %10 = alloca i32, align 4
  %11 = alloca ptr, align 8
  %12 = alloca i32, align 4
  %13 = alloca i32, align 4
  store ptr %0, ptr %6, align 8
  store ptr %1, ptr %7, align 8
  store ptr %2, ptr %8, align 8
  store ptr %3, ptr %9, align 8
  call void @llvm.lifetime.start.p0(i64 4, ptr %10) #19
  %14 = load ptr, ptr %6, align 8
  %15 = call i32 @tvb_reported_length(ptr noundef %14)
  store i32 %15, ptr %10, align 4
  call void @llvm.lifetime.start.p0(i64 8, ptr %11) #19
  %16 = load ptr, ptr %9, align 8
  store ptr %16, ptr %11, align 8
  call void @llvm.lifetime.start.p0(i64 4, ptr %12) #19
  store i32 0, ptr %12, align 4
  %17 = load ptr, ptr %11, align 8
  %18 = getelementptr inbounds nuw %struct.ieee80211_tagged_field_data, ptr %17, i32 0, i32 2
  %19 = load i8, ptr %18, align 8, !range !6, !noundef !7
  %20 = trunc i8 %19 to i1
  %21 = zext i1 %20 to i32
  %22 = icmp eq i32 %21, 0
  br i1 %22, label %23, label %35

23:                                               ; preds = %4
  %24 = load i32, ptr %10, align 4
  %25 = icmp ne i32 %24, 55
  br i1 %25, label %26, label %35

26:                                               ; preds = %23
  %27 = load ptr, ptr %7, align 8
  %28 = load ptr, ptr %11, align 8
  %29 = getelementptr inbounds nuw %struct.ieee80211_tagged_field_data, ptr %28, i32 0, i32 4
  %30 = load ptr, ptr %29, align 8
  %31 = load i32, ptr %10, align 4
  %32 = call ptr (ptr, ptr, ptr, ptr, ...) @expert_add_info_format(ptr noundef %27, ptr noundef %30, ptr noundef @ei_ieee80211_tag_length, ptr noundef @.str.9967, i32 noundef %31)
  %33 = load ptr, ptr %6, align 8
  %34 = call i32 @tvb_captured_length(ptr noundef %33)
  store i32 %34, ptr %5, align 4
  store i32 1, ptr %13, align 4
  br label %182

35:                                               ; preds = %23, %4
  %36 = load ptr, ptr %11, align 8
  %37 = getelementptr inbounds nuw %struct.ieee80211_tagged_field_data, ptr %36, i32 0, i32 2
  %38 = load i8, ptr %37, align 8, !range !6, !noundef !7
  %39 = trunc i8 %38 to i1
  %40 = zext i1 %39 to i32
  %41 = icmp eq i32 %40, 1
  br i1 %41, label %42, label %54

42:                                               ; preds = %35
  %43 = load i32, ptr %10, align 4
  %44 = icmp ne i32 %43, 57
  br i1 %44, label %45, label %54

45:                                               ; preds = %42
  %46 = load ptr, ptr %7, align 8
  %47 = load ptr, ptr %11, align 8
  %48 = getelementptr inbounds nuw %struct.ieee80211_tagged_field_data, ptr %47, i32 0, i32 4
  %49 = load ptr, ptr %48, align 8
  %50 = load i32, ptr %10, align 4
  %51 = call ptr (ptr, ptr, ptr, ptr, ...) @expert_add_info_format(ptr noundef %46, ptr noundef %49, ptr noundef @ei_ieee80211_tag_length, ptr noundef @.str.9968, i32 noundef %50)
  %52 = load ptr, ptr %6, align 8
  %53 = call i32 @tvb_captured_length(ptr noundef %52)
  store i32 %53, ptr %5, align 4
  store i32 1, ptr %13, align 4
  br label %182

54:                                               ; preds = %42, %35
  %55 = load ptr, ptr %8, align 8
  %56 = load ptr, ptr %6, align 8
  %57 = load ptr, ptr %7, align 8
  %58 = load i32, ptr %12, align 4
  %59 = call i32 @add_ff_qos_ts_info(ptr noundef %55, ptr noundef %56, ptr noundef %57, i32 noundef %58)
  %60 = load i32, ptr %12, align 4
  %61 = add i32 %60, 3
  store i32 %61, ptr %12, align 4
  %62 = load ptr, ptr %8, align 8
  %63 = load i32, ptr @hf_ieee80211_tspec_nor_msdu, align 4
  %64 = load ptr, ptr %6, align 8
  %65 = load i32, ptr %12, align 4
  %66 = call ptr @proto_tree_add_item(ptr noundef %62, i32 noundef %63, ptr noundef %64, i32 noundef %65, i32 noundef 2, i32 noundef -2147483648)
  %67 = load i32, ptr %12, align 4
  %68 = add i32 %67, 2
  store i32 %68, ptr %12, align 4
  %69 = load ptr, ptr %8, align 8
  %70 = load i32, ptr @hf_ieee80211_tspec_max_msdu, align 4
  %71 = load ptr, ptr %6, align 8
  %72 = load i32, ptr %12, align 4
  %73 = call ptr @proto_tree_add_item(ptr noundef %69, i32 noundef %70, ptr noundef %71, i32 noundef %72, i32 noundef 2, i32 noundef -2147483648)
  %74 = load i32, ptr %12, align 4
  %75 = add i32 %74, 2
  store i32 %75, ptr %12, align 4
  %76 = load ptr, ptr %8, align 8
  %77 = load i32, ptr @hf_ieee80211_tspec_min_srv, align 4
  %78 = load ptr, ptr %6, align 8
  %79 = load i32, ptr %12, align 4
  %80 = call ptr @proto_tree_add_item(ptr noundef %76, i32 noundef %77, ptr noundef %78, i32 noundef %79, i32 noundef 4, i32 noundef -2147483648)
  %81 = load i32, ptr %12, align 4
  %82 = add i32 %81, 4
  store i32 %82, ptr %12, align 4
  %83 = load ptr, ptr %8, align 8
  %84 = load i32, ptr @hf_ieee80211_tspec_max_srv, align 4
  %85 = load ptr, ptr %6, align 8
  %86 = load i32, ptr %12, align 4
  %87 = call ptr @proto_tree_add_item(ptr noundef %83, i32 noundef %84, ptr noundef %85, i32 noundef %86, i32 noundef 4, i32 noundef -2147483648)
  %88 = load i32, ptr %12, align 4
  %89 = add i32 %88, 4
  store i32 %89, ptr %12, align 4
  %90 = load ptr, ptr %8, align 8
  %91 = load i32, ptr @hf_ieee80211_tspec_inact_int, align 4
  %92 = load ptr, ptr %6, align 8
  %93 = load i32, ptr %12, align 4
  %94 = call ptr @proto_tree_add_item(ptr noundef %90, i32 noundef %91, ptr noundef %92, i32 noundef %93, i32 noundef 4, i32 noundef -2147483648)
  %95 = load i32, ptr %12, align 4
  %96 = add i32 %95, 4
  store i32 %96, ptr %12, align 4
  %97 = load ptr, ptr %8, align 8
  %98 = load i32, ptr @hf_ieee80211_tspec_susp_int, align 4
  %99 = load ptr, ptr %6, align 8
  %100 = load i32, ptr %12, align 4
  %101 = call ptr @proto_tree_add_item(ptr noundef %97, i32 noundef %98, ptr noundef %99, i32 noundef %100, i32 noundef 4, i32 noundef -2147483648)
  %102 = load i32, ptr %12, align 4
  %103 = add i32 %102, 4
  store i32 %103, ptr %12, align 4
  %104 = load ptr, ptr %8, align 8
  %105 = load i32, ptr @hf_ieee80211_tspec_srv_start, align 4
  %106 = load ptr, ptr %6, align 8
  %107 = load i32, ptr %12, align 4
  %108 = call ptr @proto_tree_add_item(ptr noundef %104, i32 noundef %105, ptr noundef %106, i32 noundef %107, i32 noundef 4, i32 noundef -2147483648)
  %109 = load i32, ptr %12, align 4
  %110 = add i32 %109, 4
  store i32 %110, ptr %12, align 4
  %111 = load ptr, ptr %8, align 8
  %112 = load i32, ptr @hf_ieee80211_tspec_min_data, align 4
  %113 = load ptr, ptr %6, align 8
  %114 = load i32, ptr %12, align 4
  %115 = call ptr @proto_tree_add_item(ptr noundef %111, i32 noundef %112, ptr noundef %113, i32 noundef %114, i32 noundef 4, i32 noundef -2147483648)
  %116 = load i32, ptr %12, align 4
  %117 = add i32 %116, 4
  store i32 %117, ptr %12, align 4
  %118 = load ptr, ptr %8, align 8
  %119 = load i32, ptr @hf_ieee80211_tspec_mean_data, align 4
  %120 = load ptr, ptr %6, align 8
  %121 = load i32, ptr %12, align 4
  %122 = call ptr @proto_tree_add_item(ptr noundef %118, i32 noundef %119, ptr noundef %120, i32 noundef %121, i32 noundef 4, i32 noundef -2147483648)
  %123 = load i32, ptr %12, align 4
  %124 = add i32 %123, 4
  store i32 %124, ptr %12, align 4
  %125 = load ptr, ptr %8, align 8
  %126 = load i32, ptr @hf_ieee80211_tspec_peak_data, align 4
  %127 = load ptr, ptr %6, align 8
  %128 = load i32, ptr %12, align 4
  %129 = call ptr @proto_tree_add_item(ptr noundef %125, i32 noundef %126, ptr noundef %127, i32 noundef %128, i32 noundef 4, i32 noundef -2147483648)
  %130 = load i32, ptr %12, align 4
  %131 = add i32 %130, 4
  store i32 %131, ptr %12, align 4
  %132 = load ptr, ptr %8, align 8
  %133 = load i32, ptr @hf_ieee80211_tspec_burst_size, align 4
  %134 = load ptr, ptr %6, align 8
  %135 = load i32, ptr %12, align 4
  %136 = call ptr @proto_tree_add_item(ptr noundef %132, i32 noundef %133, ptr noundef %134, i32 noundef %135, i32 noundef 4, i32 noundef -2147483648)
  %137 = load i32, ptr %12, align 4
  %138 = add i32 %137, 4
  store i32 %138, ptr %12, align 4
  %139 = load ptr, ptr %8, align 8
  %140 = load i32, ptr @hf_ieee80211_tspec_delay_bound, align 4
  %141 = load ptr, ptr %6, align 8
  %142 = load i32, ptr %12, align 4
  %143 = call ptr @proto_tree_add_item(ptr noundef %139, i32 noundef %140, ptr noundef %141, i32 noundef %142, i32 noundef 4, i32 noundef -2147483648)
  %144 = load i32, ptr %12, align 4
  %145 = add i32 %144, 4
  store i32 %145, ptr %12, align 4
  %146 = load ptr, ptr %8, align 8
  %147 = load i32, ptr @hf_ieee80211_tspec_min_phy, align 4
  %148 = load ptr, ptr %6, align 8
  %149 = load i32, ptr %12, align 4
  %150 = call ptr @proto_tree_add_item(ptr noundef %146, i32 noundef %147, ptr noundef %148, i32 noundef %149, i32 noundef 4, i32 noundef -2147483648)
  %151 = load i32, ptr %12, align 4
  %152 = add i32 %151, 4
  store i32 %152, ptr %12, align 4
  %153 = load ptr, ptr %8, align 8
  %154 = load i32, ptr @hf_ieee80211_tspec_surplus, align 4
  %155 = load ptr, ptr %6, align 8
  %156 = load i32, ptr %12, align 4
  %157 = call ptr @proto_tree_add_item(ptr noundef %153, i32 noundef %154, ptr noundef %155, i32 noundef %156, i32 noundef 2, i32 noundef -2147483648)
  %158 = load i32, ptr %12, align 4
  %159 = add i32 %158, 2
  store i32 %159, ptr %12, align 4
  %160 = load ptr, ptr %8, align 8
  %161 = load i32, ptr @hf_ieee80211_tspec_medium, align 4
  %162 = load ptr, ptr %6, align 8
  %163 = load i32, ptr %12, align 4
  %164 = call ptr @proto_tree_add_item(ptr noundef %160, i32 noundef %161, ptr noundef %162, i32 noundef %163, i32 noundef 2, i32 noundef -2147483648)
  %165 = load i32, ptr %12, align 4
  %166 = add i32 %165, 2
  store i32 %166, ptr %12, align 4
  %167 = load ptr, ptr %11, align 8
  %168 = getelementptr inbounds nuw %struct.ieee80211_tagged_field_data, ptr %167, i32 0, i32 2
  %169 = load i8, ptr %168, align 8, !range !6, !noundef !7
  %170 = trunc i8 %169 to i1
  %171 = zext i1 %170 to i32
  %172 = icmp eq i32 %171, 1
  br i1 %172, label %173, label %179

173:                                              ; preds = %54
  %174 = load ptr, ptr %8, align 8
  %175 = load i32, ptr @hf_ieee80211_tspec_dmg, align 4
  %176 = load ptr, ptr %6, align 8
  %177 = load i32, ptr %12, align 4
  %178 = call ptr @proto_tree_add_item(ptr noundef %174, i32 noundef %175, ptr noundef %176, i32 noundef %177, i32 noundef 2, i32 noundef -2147483648)
  br label %179

179:                                              ; preds = %173, %54
  %180 = load ptr, ptr %6, align 8
  %181 = call i32 @tvb_captured_length(ptr noundef %180)
  store i32 %181, ptr %5, align 4
  store i32 1, ptr %13, align 4
  br label %182

182:                                              ; preds = %179, %45, %26
  call void @llvm.lifetime.end.p0(i64 4, ptr %12) #19
  call void @llvm.lifetime.end.p0(i64 8, ptr %11) #19
  call void @llvm.lifetime.end.p0(i64 4, ptr %10) #19
  %183 = load i32, ptr %5, align 4
  ret i32 %183
}