; Function Attrs: null_pointer_is_valid sspstrong uwtable
define internal i32 @ieee80211_tag_tspec(ptr noundef %0, ptr noundef %1, ptr noundef %2, ptr noundef readonly captures(none) %3) #2 {
  %5 = tail call i32 @tvb_reported_length(ptr noundef %0)
  %6 = getelementptr inbounds nuw i8, ptr %3, i64 16
  %7 = load i8, ptr %6, align 8, !range !6, !noundef !7
  %8 = icmp eq i8 %7, 0
  %9 = icmp ne i32 %5, 55
  %or.cond = select i1 %8, i1 %9, i1 false
  br i1 %or.cond, label %10, label %14

10:                                               ; preds = %4
  %11 = getelementptr inbounds nuw i8, ptr %3, i64 32
  %12 = load ptr, ptr %11, align 8
  %13 = tail call ptr (ptr, ptr, ptr, ptr, ...) @expert_add_info_format(ptr noundef %1, ptr noundef %12, ptr noundef nonnull @ei_ieee80211_tag_length, ptr noundef nonnull @.str.9967, i32 noundef %5)
  br label %60

14:                                               ; preds = %4
  %15 = trunc nuw i8 %7 to i1
  %16 = icmp ne i32 %5, 57
  %or.cond3 = select i1 %15, i1 %16, i1 false
  br i1 %or.cond3, label %17, label %21

17:                                               ; preds = %14
  %18 = getelementptr inbounds nuw i8, ptr %3, i64 32
  %19 = load ptr, ptr %18, align 8
  %20 = tail call ptr (ptr, ptr, ptr, ptr, ...) @expert_add_info_format(ptr noundef %1, ptr noundef %19, ptr noundef nonnull @ei_ieee80211_tag_length, ptr noundef nonnull @.str.9968, i32 noundef %5)
  br label %60

21:                                               ; preds = %14
  %22 = load i32, ptr @hf_ieee80211_tsinfo, align 4
  %23 = load i32, ptr @ett_tsinfo_tree, align 4
  %24 = tail call ptr @proto_tree_add_bitmask(ptr noundef %2, ptr noundef %0, i32 noundef 0, i32 noundef %22, i32 noundef %23, ptr noundef nonnull @ieee80211_tsinfo_fields, i32 noundef -2147483648)
  %25 = load i32, ptr @hf_ieee80211_tspec_nor_msdu, align 4
  %26 = tail call ptr @proto_tree_add_item(ptr noundef %2, i32 noundef %25, ptr noundef %0, i32 noundef 3, i32 noundef 2, i32 noundef -2147483648)
  %27 = load i32, ptr @hf_ieee80211_tspec_max_msdu, align 4
  %28 = tail call ptr @proto_tree_add_item(ptr noundef %2, i32 noundef %27, ptr noundef %0, i32 noundef 5, i32 noundef 2, i32 noundef -2147483648)
  %29 = load i32, ptr @hf_ieee80211_tspec_min_srv, align 4
  %30 = tail call ptr @proto_tree_add_item(ptr noundef %2, i32 noundef %29, ptr noundef %0, i32 noundef 7, i32 noundef 4, i32 noundef -2147483648)
  %31 = load i32, ptr @hf_ieee80211_tspec_max_srv, align 4
  %32 = tail call ptr @proto_tree_add_item(ptr noundef %2, i32 noundef %31, ptr noundef %0, i32 noundef 11, i32 noundef 4, i32 noundef -2147483648)
  %33 = load i32, ptr @hf_ieee80211_tspec_inact_int, align 4
  %34 = tail call ptr @proto_tree_add_item(ptr noundef %2, i32 noundef %33, ptr noundef %0, i32 noundef 15, i32 noundef 4, i32 noundef -2147483648)
  %35 = load i32, ptr @hf_ieee80211_tspec_susp_int, align 4
  %36 = tail call ptr @proto_tree_add_item(ptr noundef %2, i32 noundef %35, ptr noundef %0, i32 noundef 19, i32 noundef 4, i32 noundef -2147483648)
  %37 = load i32, ptr @hf_ieee80211_tspec_srv_start, align 4
  %38 = tail call ptr @proto_tree_add_item(ptr noundef %2, i32 noundef %37, ptr noundef %0, i32 noundef 23, i32 noundef 4, i32 noundef -2147483648)
  %39 = load i32, ptr @hf_ieee80211_tspec_min_data, align 4
  %40 = tail call ptr @proto_tree_add_item(ptr noundef %2, i32 noundef %39, ptr noundef %0, i32 noundef 27, i32 noundef 4, i32 noundef -2147483648)
  %41 = load i32, ptr @hf_ieee80211_tspec_mean_data, align 4
  %42 = tail call ptr @proto_tree_add_item(ptr noundef %2, i32 noundef %41, ptr noundef %0, i32 noundef 31, i32 noundef 4, i32 noundef -2147483648)
  %43 = load i32, ptr @hf_ieee80211_tspec_peak_data, align 4
  %44 = tail call ptr @proto_tree_add_item(ptr noundef %2, i32 noundef %43, ptr noundef %0, i32 noundef 35, i32 noundef 4, i32 noundef -2147483648)
  %45 = load i32, ptr @hf_ieee80211_tspec_burst_size, align 4
  %46 = tail call ptr @proto_tree_add_item(ptr noundef %2, i32 noundef %45, ptr noundef %0, i32 noundef 39, i32 noundef 4, i32 noundef -2147483648)
  %47 = load i32, ptr @hf_ieee80211_tspec_delay_bound, align 4
  %48 = tail call ptr @proto_tree_add_item(ptr noundef %2, i32 noundef %47, ptr noundef %0, i32 noundef 43, i32 noundef 4, i32 noundef -2147483648)
  %49 = load i32, ptr @hf_ieee80211_tspec_min_phy, align 4
  %50 = tail call ptr @proto_tree_add_item(ptr noundef %2, i32 noundef %49, ptr noundef %0, i32 noundef 47, i32 noundef 4, i32 noundef -2147483648)
  %51 = load i32, ptr @hf_ieee80211_tspec_surplus, align 4
  %52 = tail call ptr @proto_tree_add_item(ptr noundef %2, i32 noundef %51, ptr noundef %0, i32 noundef 51, i32 noundef 2, i32 noundef -2147483648)
  %53 = load i32, ptr @hf_ieee80211_tspec_medium, align 4
  %54 = tail call ptr @proto_tree_add_item(ptr noundef %2, i32 noundef %53, ptr noundef %0, i32 noundef 53, i32 noundef 2, i32 noundef -2147483648)
  %55 = load i8, ptr %6, align 8, !range !6, !noundef !7
  %56 = trunc nuw i8 %55 to i1
  br i1 %56, label %57, label %60

57:                                               ; preds = %21
  %58 = load i32, ptr @hf_ieee80211_tspec_dmg, align 4
  %59 = tail call ptr @proto_tree_add_item(ptr noundef %2, i32 noundef %58, ptr noundef %0, i32 noundef 55, i32 noundef 2, i32 noundef -2147483648)
  br label %60

60:                                               ; preds = %21, %57, %17, %10
  %61 = tail call i32 @tvb_captured_length(ptr noundef %0)
  ret i32 %61
}